; Function Attrs: mustprogress nounwind uwtable
define hidden void @_ZN6hermes3hbc20HVMRegisterAllocator17handleInstructionEPNS_11InstructionE(ptr nocapture noundef nonnull align 8 dereferenceable(1960) %this, ptr noundef %I) unnamed_addr #0 align 2 {
entry:
  %add.ptr.i.i.i.i.i.i = getelementptr inbounds i8, ptr %I, i64 16
  %0 = load i8, ptr %add.ptr.i.i.i.i.i.i, align 8
  %1 = add i8 %0, -98
  %2 = icmp ult i8 %1, -8
  %tobool.not2 = icmp eq ptr %I, null
  %tobool.not = or i1 %tobool.not2, %2
  br i1 %tobool.not, label %if.end, label %if.then

if.then:                                          ; preds = %entry
  %call.i.i = tail call noundef i32 @_ZNK6hermes11Instruction14getNumOperandsEv(ptr noundef nonnull align 8 dereferenceable(132) %I) #19
  %add.i = add i32 %call.i.i, 4
  %max_parameter_count_.i.i = getelementptr inbounds i8, ptr %this, i64 1952
  %3 = load i32, ptr %max_parameter_count_.i.i, align 8
  %cmp.i.i = icmp ult i32 %3, %add.i
  br i1 %cmp.i.i, label %if.then.i.i, label %if.end

if.then.i.i:                                      ; preds = %if.then
  store i32 %add.i, ptr %max_parameter_count_.i.i, align 8
  br label %if.end

if.end:                                           ; preds = %if.then.i.i, %if.then, %entry
  ret void
}